(lp0
(lp1
S'<'
p2
aS'<'
p3
aS'v'
p4
aS'<'
p5
aS'<'
p6
aS'v'
p7
aS'<'
p8
aS'>'
p9
aS'v'
p10
aS'<'
p11
aS'>'
p12
aS'^'
p13
aS'<'
p14
aS'v'
p15
aS'v'
p16
aS'v'
p17
aS'^'
p18
aS'>'
p19
aS'^'
p20
aS'v'
p21
aa(lp22
S'>'
p23
aS'^'
p24
aS'v'
p25
aS'<'
p26
aS'v'
p27
aS'>'
p28
aS'<'
p29
aS'>'
p30
aS'>'
p31
aS'<'
p32
aS'None'
p33
aS'v'
p34
aS'v'
p35
aS'^'
p36
aS'>'
p37
aS'v'
p38
aS'^'
p39
aS'<'
p40
aS'^'
p41
aS'v'
p42
aa(lp43
S'v'
p44
aS'v'
p45
aS'^'
p46
aS'<'
p47
aS'v'
p48
aS'v'
p49
aS'^'
p50
aS'<'
p51
aS'v'
p52
aS'>'
p53
aS'<'
p54
aS'v'
p55
aS'v'
p56
aS'^'
p57
aS'<'
p58
aS'>'
p59
aS'>'
p60
aS'>'
p61
aS'>'
p62
aS'v'
p63
aa(lp64
S'v'
p65
aS'^'
p66
aS'<'
p67
aS'>'
p68
aS'>'
p69
aS'>'
p70
aS'<'
p71
aS'>'
p72
aS'^'
p73
aS'v'
p74
aS'<'
p75
aS'>'
p76
aS'^'
p77
aS'<'
p78
aS'^'
p79
aS'>'
p80
aS'<'
p81
aS'v'
p82
aS'>'
p83
aS'v'
p84
aa(lp85
S'v'
p86
aS'>'
p87
aS'>'
p88
aS'>'
p89
aS'^'
p90
aS'<'
p91
aS'v'
p92
aS'^'
p93
aS'<'
p94
aS'>'
p95
aS'v'
p96
aS'>'
p97
aS'^'
p98
aS'>'
p99
aS'v'
p100
aS'v'
p101
aS'v'
p102
aS'>'
p103
aS'None'
p104
aS'v'
p105
aa(lp106
S'^'
p107
aS'>'
p108
aS'<'
p109
aS'^'
p110
aS'>'
p111
aS'>'
p112
aS'v'
p113
aS'v'
p114
aS'None'
p115
aS'^'
p116
aS'>'
p117
aS'v'
p118
aS'>'
p119
aS'<'
p120
aS'^'
p121
aS'^'
p122
aS'^'
p123
aS'None'
p124
aS'>'
p125
aS'v'
p126
aa(lp127
S'<'
p128
aS'<'
p129
aS'<'
p130
aS'^'
p131
aS'<'
p132
aS'^'
p133
aS'v'
p134
aS'v'
p135
aS'<'
p136
aS'>'
p137
aS'v'
p138
aS'v'
p139
aS'<'
p140
aS'^'
p141
aS'^'
p142
aS'v'
p143
aS'None'
p144
aS'>'
p145
aS'>'
p146
aS'v'
p147
aa(lp148
S'v'
p149
aS'>'
p150
aS'>'
p151
aS'<'
p152
aS'v'
p153
aS'^'
p154
aS'None'
p155
aS'None'
p156
aS'v'
p157
aS'>'
p158
aS'v'
p159
aS'<'
p160
aS'<'
p161
aS'<'
p162
aS'v'
p163
aS'None'
p164
aS'>'
p165
aS'v'
p166
aS'v'
p167
aS'>'
p168
aa(lp169
S'>'
p170
aS'v'
p171
aS'v'
p172
aS'<'
p173
aS'<'
p174
aS'v'
p175
aS'v'
p176
aS'v'
p177
aS'None'
p178
aS'^'
p179
aS'^'
p180
aS'^'
p181
aS'v'
p182
aS'^'
p183
aS'None'
p184
aS'^'
p185
aS'<'
p186
aS'v'
p187
aS'^'
p188
aS'<'
p189
aa(lp190
S'>'
p191
aS'>'
p192
aS'<'
p193
aS'None'
p194
aS'^'
p195
aS'^'
p196
aS'v'
p197
aS'<'
p198
aS'^'
p199
aS'None'
p200
aS'^'
p201
aS'v'
p202
aS'None'
p203
aS'None'
p204
aS'<'
p205
aS'>'
p206
aS'v'
p207
aS'^'
p208
aS'^'
p209
aS'<'
p210
aa(lp211
S'v'
p212
aS'^'
p213
aS'None'
p214
aS'^'
p215
aS'None'
p216
aS'v'
p217
aS'>'
p218
aS'v'
p219
aS'^'
p220
aS'>'
p221
aS'None'
p222
aS'None'
p223
aS'^'
p224
aS'<'
p225
aS'v'
p226
aS'^'
p227
aS'>'
p228
aS'^'
p229
aS'<'
p230
aS'^'
p231
aa(lp232
S'^'
p233
aS'None'
p234
aS'>'
p235
aS'<'
p236
aS'<'
p237
aS'None'
p238
aS'v'
p239
aS'v'
p240
aS'<'
p241
aS'v'
p242
aS'^'
p243
aS'<'
p244
aS'None'
p245
aS'>'
p246
aS'^'
p247
aS'^'
p248
aS'^'
p249
aS'<'
p250
aS'^'
p251
aS'v'
p252
aa(lp253
S'^'
p254
aS'None'
p255
aS'>'
p256
aS'v'
p257
aS'<'
p258
aS'^'
p259
aS'None'
p260
aS'v'
p261
aS'<'
p262
aS'>'
p263
aS'>'
p264
aS'v'
p265
aS'v'
p266
aS'v'
p267
aS'^'
p268
aS'v'
p269
aS'<'
p270
aS'>'
p271
aS'v'
p272
aS'v'
p273
aa(lp274
S'^'
p275
aS'<'
p276
aS'<'
p277
aS'^'
p278
aS'>'
p279
aS'None'
p280
aS'>'
p281
aS'^'
p282
aS'v'
p283
aS'^'
p284
aS'>'
p285
aS'None'
p286
aS'>'
p287
aS'^'
p288
aS'None'
p289
aS'v'
p290
aS'<'
p291
aS'^'
p292
aS'>'
p293
aS'>'
p294
aa(lp295
S'v'
p296
aS'None'
p297
aS'<'
p298
aS'>'
p299
aS'None'
p300
aS'>'
p301
aS'v'
p302
aS'v'
p303
aS'v'
p304
aS'v'
p305
aS'None'
p306
aS'<'
p307
aS'v'
p308
aS'^'
p309
aS'None'
p310
aS'v'
p311
aS'>'
p312
aS'^'
p313
aS'^'
p314
aS'>'
p315
aa(lp316
S'v'
p317
aS'None'
p318
aS'v'
p319
aS'v'
p320
aS'>'
p321
aS'None'
p322
aS'>'
p323
aS'<'
p324
aS'v'
p325
aS'None'
p326
aS'>'
p327
aS'^'
p328
aS'v'
p329
aS'>'
p330
aS'None'
p331
aS'None'
p332
aS'None'
p333
aS'None'
p334
aS'^'
p335
aS'<'
p336
aa(lp337
S'v'
p338
aS'None'
p339
aS'v'
p340
aS'<'
p341
aS'>'
p342
aS'v'
p343
aS'<'
p344
aS'v'
p345
aS'None'
p346
aS'^'
p347
aS'<'
p348
aS'<'
p349
aS'<'
p350
aS'<'
p351
aS'None'
p352
aS'<'
p353
aS'^'
p354
aS'v'
p355
aS'v'
p356
aS'<'
p357
aa(lp358
S'v'
p359
aS'None'
p360
aS'>'
p361
aS'^'
p362
aS'v'
p363
aS'v'
p364
aS'^'
p365
aS'None'
p366
aS'>'
p367
aS'>'
p368
aS'<'
p369
aS'>'
p370
aS'v'
p371
aS'v'
p372
aS'None'
p373
aS'>'
p374
aS'^'
p375
aS'<'
p376
aS'<'
p377
aS'>'
p378
aa(lp379
S'v'
p380
aS'None'
p381
aS'>'
p382
aS'<'
p383
aS'v'
p384
aS'<'
p385
aS'>'
p386
aS'None'
p387
aS'^'
p388
aS'v'
p389
aS'<'
p390
aS'<'
p391
aS'<'
p392
aS'^'
p393
aS'None'
p394
aS'<'
p395
aS'<'
p396
aS'<'
p397
aS'v'
p398
aS'<'
p399
aa(lp400
S'v'
p401
aS'None'
p402
aS'>'
p403
aS'<'
p404
aS'<'
p405
aS'^'
p406
aS'>'
p407
aS'>'
p408
aS'<'
p409
aS'<'
p410
aS'^'
p411
aS'^'
p412
aS'<'
p413
aS'>'
p414
aS'<'
p415
aS'<'
p416
aS'^'
p417
aS'^'
p418
aS'^'
p419
aS'v'
p420
aa.