(lp0
(lp1
S'^'
p2
aS'v'
p3
aS'v'
p4
aS'<'
p5
aS'v'
p6
aS'>'
p7
aS'>'
p8
aS'v'
p9
aS'<'
p10
aS'^'
p11
aS'^'
p12
aS'<'
p13
aS'<'
p14
aS'>'
p15
aS'v'
p16
aS'>'
p17
aS'>'
p18
aS'>'
p19
aS'<'
p20
aS'v'
p21
aa(lp22
S'^'
p23
aS'v'
p24
aS'<'
p25
aS'>'
p26
aS'v'
p27
aS'v'
p28
aS'v'
p29
aS'^'
p30
aS'v'
p31
aS'v'
p32
aS'None'
p33
aS'v'
p34
aS'>'
p35
aS'<'
p36
aS'>'
p37
aS'>'
p38
aS'<'
p39
aS'>'
p40
aS'^'
p41
aS'^'
p42
aa(lp43
S'<'
p44
aS'^'
p45
aS'>'
p46
aS'>'
p47
aS'>'
p48
aS'^'
p49
aS'>'
p50
aS'^'
p51
aS'<'
p52
aS'>'
p53
aS'^'
p54
aS'^'
p55
aS'v'
p56
aS'>'
p57
aS'^'
p58
aS'>'
p59
aS'v'
p60
aS'>'
p61
aS'^'
p62
aS'<'
p63
aa(lp64
S'<'
p65
aS'^'
p66
aS'v'
p67
aS'v'
p68
aS'<'
p69
aS'<'
p70
aS'^'
p71
aS'<'
p72
aS'<'
p73
aS'^'
p74
aS'>'
p75
aS'>'
p76
aS'v'
p77
aS'<'
p78
aS'>'
p79
aS'<'
p80
aS'>'
p81
aS'<'
p82
aS'v'
p83
aS'v'
p84
aa(lp85
S'<'
p86
aS'^'
p87
aS'^'
p88
aS'^'
p89
aS'>'
p90
aS'v'
p91
aS'<'
p92
aS'v'
p93
aS'>'
p94
aS'<'
p95
aS'>'
p96
aS'^'
p97
aS'^'
p98
aS'^'
p99
aS'>'
p100
aS'<'
p101
aS'>'
p102
aS'^'
p103
aS'None'
p104
aS'<'
p105
aa(lp106
S'<'
p107
aS'>'
p108
aS'>'
p109
aS'v'
p110
aS'v'
p111
aS'>'
p112
aS'<'
p113
aS'v'
p114
aS'None'
p115
aS'<'
p116
aS'<'
p117
aS'v'
p118
aS'^'
p119
aS'v'
p120
aS'v'
p121
aS'v'
p122
aS'^'
p123
aS'None'
p124
aS'v'
p125
aS'^'
p126
aa(lp127
S'v'
p128
aS'^'
p129
aS'>'
p130
aS'^'
p131
aS'>'
p132
aS'v'
p133
aS'>'
p134
aS'v'
p135
aS'>'
p136
aS'v'
p137
aS'^'
p138
aS'<'
p139
aS'^'
p140
aS'<'
p141
aS'v'
p142
aS'>'
p143
aS'None'
p144
aS'<'
p145
aS'v'
p146
aS'>'
p147
aa(lp148
S'v'
p149
aS'<'
p150
aS'v'
p151
aS'v'
p152
aS'v'
p153
aS'v'
p154
aS'None'
p155
aS'None'
p156
aS'>'
p157
aS'^'
p158
aS'<'
p159
aS'v'
p160
aS'<'
p161
aS'>'
p162
aS'>'
p163
aS'None'
p164
aS'^'
p165
aS'<'
p166
aS'^'
p167
aS'v'
p168
aa(lp169
S'v'
p170
aS'<'
p171
aS'<'
p172
aS'>'
p173
aS'v'
p174
aS'>'
p175
aS'>'
p176
aS'v'
p177
aS'None'
p178
aS'^'
p179
aS'>'
p180
aS'v'
p181
aS'>'
p182
aS'>'
p183
aS'None'
p184
aS'<'
p185
aS'>'
p186
aS'^'
p187
aS'<'
p188
aS'>'
p189
aa(lp190
S'<'
p191
aS'<'
p192
aS'>'
p193
aS'None'
p194
aS'<'
p195
aS'<'
p196
aS'<'
p197
aS'<'
p198
aS'>'
p199
aS'None'
p200
aS'v'
p201
aS'v'
p202
aS'None'
p203
aS'None'
p204
aS'v'
p205
aS'>'
p206
aS'v'
p207
aS'>'
p208
aS'<'
p209
aS'>'
p210
aa(lp211
S'>'
p212
aS'<'
p213
aS'None'
p214
aS'>'
p215
aS'None'
p216
aS'v'
p217
aS'>'
p218
aS'^'
p219
aS'v'
p220
aS'^'
p221
aS'None'
p222
aS'None'
p223
aS'^'
p224
aS'^'
p225
aS'^'
p226
aS'^'
p227
aS'<'
p228
aS'>'
p229
aS'>'
p230
aS'^'
p231
aa(lp232
S'>'
p233
aS'None'
p234
aS'^'
p235
aS'^'
p236
aS'v'
p237
aS'None'
p238
aS'v'
p239
aS'>'
p240
aS'v'
p241
aS'^'
p242
aS'>'
p243
aS'>'
p244
aS'None'
p245
aS'^'
p246
aS'>'
p247
aS'v'
p248
aS'^'
p249
aS'^'
p250
aS'<'
p251
aS'<'
p252
aa(lp253
S'^'
p254
aS'None'
p255
aS'^'
p256
aS'>'
p257
aS'v'
p258
aS'<'
p259
aS'None'
p260
aS'^'
p261
aS'>'
p262
aS'v'
p263
aS'^'
p264
aS'v'
p265
aS'<'
p266
aS'v'
p267
aS'^'
p268
aS'^'
p269
aS'^'
p270
aS'^'
p271
aS'^'
p272
aS'v'
p273
aa(lp274
S'^'
p275
aS'<'
p276
aS'^'
p277
aS'v'
p278
aS'v'
p279
aS'None'
p280
aS'<'
p281
aS'^'
p282
aS'<'
p283
aS'v'
p284
aS'<'
p285
aS'None'
p286
aS'^'
p287
aS'^'
p288
aS'None'
p289
aS'>'
p290
aS'^'
p291
aS'v'
p292
aS'<'
p293
aS'v'
p294
aa(lp295
S'v'
p296
aS'None'
p297
aS'>'
p298
aS'>'
p299
aS'None'
p300
aS'>'
p301
aS'v'
p302
aS'>'
p303
aS'^'
p304
aS'>'
p305
aS'None'
p306
aS'<'
p307
aS'v'
p308
aS'<'
p309
aS'None'
p310
aS'<'
p311
aS'^'
p312
aS'<'
p313
aS'<'
p314
aS'<'
p315
aa(lp316
S'v'
p317
aS'None'
p318
aS'>'
p319
aS'>'
p320
aS'^'
p321
aS'None'
p322
aS'^'
p323
aS'v'
p324
aS'<'
p325
aS'None'
p326
aS'^'
p327
aS'<'
p328
aS'v'
p329
aS'v'
p330
aS'None'
p331
aS'None'
p332
aS'None'
p333
aS'None'
p334
aS'v'
p335
aS'<'
p336
aa(lp337
S'v'
p338
aS'None'
p339
aS'v'
p340
aS'<'
p341
aS'v'
p342
aS'<'
p343
aS'v'
p344
aS'>'
p345
aS'None'
p346
aS'>'
p347
aS'<'
p348
aS'<'
p349
aS'<'
p350
aS'v'
p351
aS'None'
p352
aS'>'
p353
aS'^'
p354
aS'v'
p355
aS'<'
p356
aS'<'
p357
aa(lp358
S'v'
p359
aS'None'
p360
aS'v'
p361
aS'^'
p362
aS'<'
p363
aS'v'
p364
aS'v'
p365
aS'None'
p366
aS'v'
p367
aS'^'
p368
aS'^'
p369
aS'^'
p370
aS'<'
p371
aS'v'
p372
aS'None'
p373
aS'<'
p374
aS'>'
p375
aS'^'
p376
aS'>'
p377
aS'^'
p378
aa(lp379
S'v'
p380
aS'None'
p381
aS'<'
p382
aS'^'
p383
aS'>'
p384
aS'>'
p385
aS'^'
p386
aS'None'
p387
aS'>'
p388
aS'v'
p389
aS'v'
p390
aS'v'
p391
aS'^'
p392
aS'>'
p393
aS'None'
p394
aS'v'
p395
aS'^'
p396
aS'^'
p397
aS'^'
p398
aS'<'
p399
aa(lp400
S'v'
p401
aS'None'
p402
aS'v'
p403
aS'v'
p404
aS'^'
p405
aS'v'
p406
aS'^'
p407
aS'<'
p408
aS'>'
p409
aS'v'
p410
aS'<'
p411
aS'>'
p412
aS'<'
p413
aS'>'
p414
aS'^'
p415
aS'v'
p416
aS'v'
p417
aS'^'
p418
aS'^'
p419
aS'v'
p420
aa.